; Function Attrs: mustprogress nofree norecurse nosync nounwind sspstrong willreturn memory(read, inaccessiblemem: none) uwtable
define internal range(i64 0, 21) i64 @builtin_inline_class_400(ptr readnone captures(none) %0, i64 noundef %1) #12 {
  %3 = and i64 %1, 3
  %4 = icmp eq i64 %3, 2
  br i1 %4, label %5, label %12

5:                                                ; preds = %2
  %.not.i.i.i = icmp eq i64 %1, -9223372036854775806
  br i1 %.not.i.i.i, label %rb_float_value.exit, label %6

6:                                                ; preds = %5
  %.neg.i.i.i = ashr i64 %1, 63
  %7 = add nsw i64 %.neg.i.i.i, 2
  %8 = and i64 %1, -4
  %9 = or i64 %7, %8
  %10 = tail call noundef i64 @llvm.fshl.i64(i64 range(i64 1, 0) %9, i64 range(i64 1, 0) %9, i64 61)
  %11 = bitcast i64 %10 to double
  br label %rb_float_value.exit

12:                                               ; preds = %2
  %13 = inttoptr i64 %1 to ptr
  %14 = getelementptr inbounds nuw i8, ptr %13, i64 16
  %15 = load double, ptr %14, align 8, !tbaa !24
  br label %rb_float_value.exit

rb_float_value.exit:                              ; preds = %5, %6, %12
  %.0.i.i = phi double [ %15, %12 ], [ %11, %6 ], [ 0.000000e+00, %5 ]
  %16 = fcmp ogt double %.0.i.i, 0.000000e+00
  %17 = select i1 %16, i64 20, i64 0
  ret i64 %17
}